target datalayout = "e-m:e-p270:32:32-p271:32:32-p272:64:64-i64:64-i128:128-f80:128-n8:16:32:64-S128"
target triple = "x86_64-pc-linux-gnu"

; Function Attrs: nounwind uwtable
define hidden void @EC_GROUP_set_point_conversion_form(ptr noundef %0, i32 noundef %1) #1 {
  %3 = alloca ptr, align 8
  %4 = alloca i32, align 4
  store ptr %0, ptr %3, align 8, !tbaa !13
  store i32 %1, ptr %4, align 4, !tbaa !33
  %5 = load i32, ptr %4, align 4, !tbaa !33
  %6 = icmp ne i32 %5, 4
  br i1 %6, label %7, label %8

7:                                                ; preds = %2
  call void @abort() #9
  unreachable

8:                                                ; preds = %2
  ret void
}