; Function Attrs: nofree nounwind uwtable
define hidden void @EC_GROUP_set_point_conversion_form(ptr noundef readnone captures(none) %0, i32 noundef %1) local_unnamed_addr #6 {
  %.not = icmp eq i32 %1, 4
  br i1 %.not, label %4, label %3

3:                                                ; preds = %2
  tail call void @abort() #13
  unreachable

4:                                                ; preds = %2
  ret void
}